target datalayout = "e-m:e-p270:32:32-p271:32:32-p272:64:64-i64:64-i128:128-f80:128-n8:16:32:64-S128"
target triple = "x86_64-pc-linux-gnu"

%struct.ForEachState = type { ptr, i32 }
%struct.List = type { i32, i32, i32, ptr, [0 x %union.ListCell] }
%union.ListCell = type { ptr }
%struct.nameData = type { [64 x i8] }
%struct.RelationData = type { %struct.RelFileLocator, ptr, i32, i32, i8, i8, i8, i8, i8, i32, i32, i32, i32, ptr, ptr, i32, %struct.LockInfoData, ptr, ptr, ptr, ptr, ptr, i8, ptr, ptr, ptr, ptr, ptr, ptr, i32, ptr, i8, ptr, ptr, i32, i8, i32, ptr, i8, ptr, ptr, ptr, ptr, ptr, ptr, ptr, i32, ptr, ptr, ptr, ptr, ptr, ptr, ptr, ptr, ptr, ptr, ptr, ptr, ptr, ptr, ptr, ptr, ptr, ptr, ptr, i32, i8, ptr }
%struct.RelFileLocator = type { i32, i32, i32 }
%struct.LockInfoData = type { %struct.LockRelId }
%struct.LockRelId = type { i32, i32 }
%struct.FormData_pg_class = type { i32, %struct.nameData, i32, i32, i32, i32, i32, i32, i32, i32, float, i32, i32, i8, i8, i8, i8, i16, i16, i8, i8, i8, i8, i8, i8, i8, i8, i32, i32, i32 }
%struct.AlterTableCmd = type { i32, i32, ptr, i16, ptr, ptr, i32, i8, i8 }

@.str.2 = private unnamed_addr constant [12 x i8] c"tablecmds.c\00", align 1
@.str.153 = private unnamed_addr constant [48 x i8] c"cannot alter temporary tables of other sessions\00", align 1
@__func__.CheckAlterTableIsSafe = private unnamed_addr constant [22 x i8] c"CheckAlterTableIsSafe\00", align 1
@.str.154 = private unnamed_addr constant [12 x i8] c"ALTER TABLE\00", align 1
@.str.216 = private unnamed_addr constant [33 x i8] c"cannot add column to typed table\00", align 1
@__func__.ATPrepAddColumn = private unnamed_addr constant [16 x i8] c"ATPrepAddColumn\00", align 1

; Function Attrs: nounwind uwtable
define internal void @CheckAlterTableIsSafe(ptr noundef %0) #0 {
  %2 = alloca ptr, align 8
  store ptr %0, ptr %2, align 8
  %3 = load ptr, ptr %2, align 8
  %4 = getelementptr inbounds nuw %struct.RelationData, ptr %3, i32 0, i32 13
  %5 = load ptr, ptr %4, align 8
  %6 = getelementptr inbounds nuw %struct.FormData_pg_class, ptr %5, i32 0, i32 15
  %7 = load i8, ptr %6, align 2
  %8 = sext i8 %7 to i32
  %9 = icmp eq i32 %8, 116
  br i1 %9, label %10, label %26

10:                                               ; preds = %1
  %11 = load ptr, ptr %2, align 8
  %12 = getelementptr inbounds nuw %struct.RelationData, ptr %11, i32 0, i32 4
  %13 = load i8, ptr %12, align 8, !range !6, !noundef !7
  %14 = trunc i8 %13 to i1
  br i1 %14, label %26, label %15

15:                                               ; preds = %10
  br label %16

16:                                               ; preds = %15
  br i1 true, label %17, label %19

17:                                               ; preds = %16
  %18 = call zeroext i1 @errstart_cold(i32 noundef 21, ptr noundef null) #13
  br i1 %18, label %21, label %24

19:                                               ; preds = %16
  %20 = call zeroext i1 @errstart(i32 noundef 21, ptr noundef null)
  br i1 %20, label %21, label %24

21:                                               ; preds = %19, %17
  %22 = call i32 @errcode(i32 noundef 1088)
  %23 = call i32 (ptr, ...) @errmsg(ptr noundef @.str.153)
  call void @errfinish(ptr noundef @.str.2, i32 noundef 4423, ptr noundef @__func__.CheckAlterTableIsSafe)
  br label %24

24:                                               ; preds = %21, %19, %17
  unreachable

25:                                               ; No predecessors!
  br label %26

26:                                               ; preds = %25, %10, %1
  %27 = load ptr, ptr %2, align 8
  call void @CheckTableNotInUse(ptr noundef %27, ptr noundef @.str.154)
  ret void
}

; Function Attrs: nounwind uwtable
define internal void @ATTypedTableRecursion(ptr noundef %0, ptr noundef %1, ptr noundef %2, i32 noundef %3, ptr noundef %4) #0 {
  %6 = alloca ptr, align 8
  %7 = alloca ptr, align 8
  %8 = alloca ptr, align 8
  %9 = alloca i32, align 4
  %10 = alloca ptr, align 8
  %11 = alloca ptr, align 8
  %12 = alloca ptr, align 8
  %13 = alloca %struct.ForEachState, align 8
  %14 = alloca i32, align 4
  %15 = alloca ptr, align 8
  store ptr %0, ptr %6, align 8
  store ptr %1, ptr %7, align 8
  store ptr %2, ptr %8, align 8
  store i32 %3, ptr %9, align 4
  store ptr %4, ptr %10, align 8
  call void @llvm.lifetime.start.p0(i64 8, ptr %11) #12
  call void @llvm.lifetime.start.p0(i64 8, ptr %12) #12
  %16 = load ptr, ptr %7, align 8
  %17 = getelementptr inbounds nuw %struct.RelationData, ptr %16, i32 0, i32 13
  %18 = load ptr, ptr %17, align 8
  %19 = getelementptr inbounds nuw %struct.FormData_pg_class, ptr %18, i32 0, i32 3
  %20 = load i32, ptr %19, align 4
  %21 = load ptr, ptr %7, align 8
  %22 = getelementptr inbounds nuw %struct.RelationData, ptr %21, i32 0, i32 13
  %23 = load ptr, ptr %22, align 8
  %24 = getelementptr inbounds nuw %struct.FormData_pg_class, ptr %23, i32 0, i32 1
  %25 = getelementptr inbounds nuw %struct.nameData, ptr %24, i32 0, i32 0
  %26 = getelementptr inbounds [64 x i8], ptr %25, i64 0, i64 0
  %27 = load ptr, ptr %8, align 8
  %28 = getelementptr inbounds nuw %struct.AlterTableCmd, ptr %27, i32 0, i32 6
  %29 = load i32, ptr %28, align 8
  %30 = call ptr @find_typed_table_dependencies(i32 noundef %20, ptr noundef %26, i32 noundef %29)
  store ptr %30, ptr %12, align 8
  call void @llvm.lifetime.start.p0(i64 16, ptr %13) #12
  %31 = getelementptr inbounds nuw %struct.ForEachState, ptr %13, i32 0, i32 0
  %32 = load ptr, ptr %12, align 8
  store ptr %32, ptr %31, align 8
  %33 = getelementptr inbounds nuw %struct.ForEachState, ptr %13, i32 0, i32 1
  store i32 0, ptr %33, align 8
  %34 = getelementptr i8, ptr %13, i64 12
  call void @llvm.memset.p0.i64(ptr align 4 %34, i8 0, i64 4, i1 false)
  br label %35

35:                                               ; preds = %74, %5
  %36 = getelementptr inbounds nuw %struct.ForEachState, ptr %13, i32 0, i32 0
  %37 = load ptr, ptr %36, align 8
  %38 = icmp ne ptr %37, null
  br i1 %38, label %39, label %56

39:                                               ; preds = %35
  %40 = getelementptr inbounds nuw %struct.ForEachState, ptr %13, i32 0, i32 1
  %41 = load i32, ptr %40, align 8
  %42 = getelementptr inbounds nuw %struct.ForEachState, ptr %13, i32 0, i32 0
  %43 = load ptr, ptr %42, align 8
  %44 = getelementptr inbounds nuw %struct.List, ptr %43, i32 0, i32 1
  %45 = load i32, ptr %44, align 4
  %46 = icmp slt i32 %41, %45
  br i1 %46, label %47, label %56

47:                                               ; preds = %39
  %48 = getelementptr inbounds nuw %struct.ForEachState, ptr %13, i32 0, i32 0
  %49 = load ptr, ptr %48, align 8
  %50 = getelementptr inbounds nuw %struct.List, ptr %49, i32 0, i32 3
  %51 = load ptr, ptr %50, align 8
  %52 = getelementptr inbounds nuw %struct.ForEachState, ptr %13, i32 0, i32 1
  %53 = load i32, ptr %52, align 8
  %54 = sext i32 %53 to i64
  %55 = getelementptr inbounds %union.ListCell, ptr %51, i64 %54
  store ptr %55, ptr %11, align 8
  br label %57

56:                                               ; preds = %39, %35
  store ptr null, ptr %11, align 8
  br label %57

57:                                               ; preds = %56, %47
  %58 = phi i32 [ 1, %47 ], [ 0, %56 ]
  %59 = icmp ne i32 %58, 0
  br i1 %59, label %61, label %60

60:                                               ; preds = %57
  call void @llvm.lifetime.end.p0(i64 16, ptr %13) #12
  br label %78

61:                                               ; preds = %57
  call void @llvm.lifetime.start.p0(i64 4, ptr %14) #12
  %62 = load ptr, ptr %11, align 8
  %63 = load i32, ptr %62, align 8
  store i32 %63, ptr %14, align 4
  call void @llvm.lifetime.start.p0(i64 8, ptr %15) #12
  %64 = load i32, ptr %14, align 4
  %65 = load i32, ptr %9, align 4
  %66 = call ptr @relation_open(i32 noundef %64, i32 noundef %65)
  store ptr %66, ptr %15, align 8
  %67 = load ptr, ptr %15, align 8
  call void @CheckAlterTableIsSafe(ptr noundef %67)
  %68 = load ptr, ptr %6, align 8
  %69 = load ptr, ptr %15, align 8
  %70 = load ptr, ptr %8, align 8
  %71 = load i32, ptr %9, align 4
  %72 = load ptr, ptr %10, align 8
  call void @ATPrepCmd(ptr noundef %68, ptr noundef %69, ptr noundef %70, i1 noundef zeroext true, i1 noundef zeroext true, i32 noundef %71, ptr noundef %72)
  %73 = load ptr, ptr %15, align 8
  call void @relation_close(ptr noundef %73, i32 noundef 0)
  call void @llvm.lifetime.end.p0(i64 8, ptr %15) #12
  call void @llvm.lifetime.end.p0(i64 4, ptr %14) #12
  br label %74

74:                                               ; preds = %61
  %75 = getelementptr inbounds nuw %struct.ForEachState, ptr %13, i32 0, i32 1
  %76 = load i32, ptr %75, align 8
  %77 = add i32 %76, 1
  store i32 %77, ptr %75, align 8
  br label %35, !llvm.loop !99

78:                                               ; preds = %60
  call void @llvm.lifetime.end.p0(i64 8, ptr %12) #12
  call void @llvm.lifetime.end.p0(i64 8, ptr %11) #12
  ret void
}

; Function Attrs: nounwind uwtable
define internal void @ATPrepAddColumn(ptr noundef %0, ptr noundef %1, i1 noundef zeroext %2, i1 noundef zeroext %3, i1 noundef zeroext %4, ptr noundef %5, i32 noundef %6, ptr noundef %7) #0 {
  %9 = alloca ptr, align 8
  %10 = alloca ptr, align 8
  %11 = alloca i8, align 1
  %12 = alloca i8, align 1
  %13 = alloca i8, align 1
  %14 = alloca ptr, align 8
  %15 = alloca i32, align 4
  %16 = alloca ptr, align 8
  store ptr %0, ptr %9, align 8
  store ptr %1, ptr %10, align 8
  %17 = zext i1 %2 to i8
  store i8 %17, ptr %11, align 1
  %18 = zext i1 %3 to i8
  store i8 %18, ptr %12, align 1
  %19 = zext i1 %4 to i8
  store i8 %19, ptr %13, align 1
  store ptr %5, ptr %14, align 8
  store i32 %6, ptr %15, align 4
  store ptr %7, ptr %16, align 8
  %20 = load ptr, ptr %10, align 8
  %21 = getelementptr inbounds nuw %struct.RelationData, ptr %20, i32 0, i32 13
  %22 = load ptr, ptr %21, align 8
  %23 = getelementptr inbounds nuw %struct.FormData_pg_class, ptr %22, i32 0, i32 4
  %24 = load i32, ptr %23, align 4
  %25 = icmp ne i32 %24, 0
  br i1 %25, label %26, label %40

26:                                               ; preds = %8
  %27 = load i8, ptr %12, align 1, !range !6, !noundef !7
  %28 = trunc i8 %27 to i1
  br i1 %28, label %40, label %29

29:                                               ; preds = %26
  br label %30

30:                                               ; preds = %29
  br i1 true, label %31, label %33

31:                                               ; preds = %30
  %32 = call zeroext i1 @errstart_cold(i32 noundef 21, ptr noundef null) #13
  br i1 %32, label %35, label %38

33:                                               ; preds = %30
  %34 = call zeroext i1 @errstart(i32 noundef 21, ptr noundef null)
  br i1 %34, label %35, label %38

35:                                               ; preds = %33, %31
  %36 = call i32 @errcode(i32 noundef 151027844)
  %37 = call i32 (ptr, ...) @errmsg(ptr noundef @.str.216)
  call void @errfinish(ptr noundef @.str.2, i32 noundef 7103, ptr noundef @__func__.ATPrepAddColumn)
  br label %38

38:                                               ; preds = %35, %33, %31
  unreachable

39:                                               ; No predecessors!
  br label %40

40:                                               ; preds = %39, %26, %8
  %41 = load ptr, ptr %10, align 8
  %42 = getelementptr inbounds nuw %struct.RelationData, ptr %41, i32 0, i32 13
  %43 = load ptr, ptr %42, align 8
  %44 = getelementptr inbounds nuw %struct.FormData_pg_class, ptr %43, i32 0, i32 16
  %45 = load i8, ptr %44, align 1
  %46 = sext i8 %45 to i32
  %47 = icmp eq i32 %46, 99
  br i1 %47, label %48, label %54

48:                                               ; preds = %40
  %49 = load ptr, ptr %9, align 8
  %50 = load ptr, ptr %10, align 8
  %51 = load ptr, ptr %14, align 8
  %52 = load i32, ptr %15, align 4
  %53 = load ptr, ptr %16, align 8
  call void @ATTypedTableRecursion(ptr noundef %49, ptr noundef %50, ptr noundef %51, i32 noundef %52, ptr noundef %53)
  br label %54

54:                                               ; preds = %48, %40
  %55 = load i8, ptr %11, align 1, !range !6, !noundef !7
  %56 = trunc i8 %55 to i1
  br i1 %56, label %57, label %63

57:                                               ; preds = %54
  %58 = load i8, ptr %13, align 1, !range !6, !noundef !7
  %59 = trunc i8 %58 to i1
  br i1 %59, label %63, label %60

60:                                               ; preds = %57
  %61 = load ptr, ptr %14, align 8
  %62 = getelementptr inbounds nuw %struct.AlterTableCmd, ptr %61, i32 0, i32 8
  store i8 1, ptr %62, align 1
  br label %63

63:                                               ; preds = %60, %57, %54
  ret void
}