; Function Attrs: nounwind uwtable
define internal fastcc void @ATPrepAddColumn(ptr noundef nonnull captures(none) %0, ptr noundef readonly captures(none) %1, i1 noundef zeroext %2, i1 noundef zeroext %3, i1 noundef zeroext %4, ptr noundef %5, i32 noundef %6, ptr noundef %7) unnamed_addr #0 {
  %9 = getelementptr inbounds nuw i8, ptr %1, i64 56
  %10 = load ptr, ptr %9, align 8
  %11 = getelementptr inbounds nuw i8, ptr %10, i64 76
  %12 = load i32, ptr %11, align 4
  %.not = icmp eq i32 %12, 0
  %brmerge = or i1 %3, %.not
  br i1 %brmerge, label %17, label %13

13:                                               ; preds = %8
  %14 = tail call zeroext i1 @errstart_cold(i32 noundef 21, ptr noundef null) #16
  tail call void @llvm.assume(i1 %14)
  %15 = tail call i32 @errcode(i32 noundef 151027844) #15
  %16 = tail call i32 (ptr, ...) @errmsg(ptr noundef nonnull @.str.216) #15
  tail call void @errfinish(ptr noundef nonnull @.str.2, i32 noundef 7103, ptr noundef nonnull @__func__.ATPrepAddColumn) #15
  unreachable

17:                                               ; preds = %8
  %18 = getelementptr inbounds nuw i8, ptr %10, i64 115
  %19 = load i8, ptr %18, align 1
  %20 = icmp eq i8 %19, 99
  br i1 %20, label %21, label %ATTypedTableRecursion.exit

21:                                               ; preds = %17
  %22 = getelementptr inbounds nuw i8, ptr %10, i64 72
  %23 = load i32, ptr %22, align 4
  %24 = getelementptr inbounds nuw i8, ptr %10, i64 4
  %25 = getelementptr inbounds nuw i8, ptr %5, i64 40
  %26 = load i32, ptr %25, align 8
  %27 = tail call fastcc ptr @find_typed_table_dependencies(i32 noundef %23, ptr noundef nonnull %24, i32 noundef %26)
  %.not.i = icmp eq ptr %27, null
  br i1 %.not.i, label %ATTypedTableRecursion.exit, label %.lr.ph

.lr.ph:                                           ; preds = %21
  %28 = getelementptr inbounds nuw i8, ptr %27, i64 4
  %29 = getelementptr inbounds nuw i8, ptr %27, i64 16
  %30 = load i32, ptr %28, align 4
  %31 = icmp sgt i32 %30, 0
  br i1 %31, label %.lr.ph17, label %ATTypedTableRecursion.exit

.lr.ph17:                                         ; preds = %.lr.ph, %CheckAlterTableIsSafe.exit
  %indvars.iv = phi i64 [ %indvars.iv.next, %CheckAlterTableIsSafe.exit ], [ 0, %.lr.ph ]
  %32 = load ptr, ptr %29, align 8
  %33 = getelementptr inbounds nuw %union.ListCell, ptr %32, i64 %indvars.iv
  %34 = load i32, ptr %33, align 8
  %35 = tail call ptr @relation_open(i32 noundef %34, i32 noundef %6) #15
  %36 = getelementptr inbounds nuw i8, ptr %35, i64 56
  %37 = load ptr, ptr %36, align 8
  %38 = getelementptr inbounds nuw i8, ptr %37, i64 114
  %39 = load i8, ptr %38, align 2
  %40 = icmp eq i8 %39, 116
  br i1 %40, label %41, label %CheckAlterTableIsSafe.exit

41:                                               ; preds = %.lr.ph17
  %42 = getelementptr inbounds nuw i8, ptr %35, i64 32
  %43 = load i8, ptr %42, align 8, !range !6, !noundef !7
  %44 = trunc nuw i8 %43 to i1
  br i1 %44, label %CheckAlterTableIsSafe.exit, label %.split

.split:                                           ; preds = %41
  %45 = tail call zeroext i1 @errstart_cold(i32 noundef 21, ptr noundef null) #16
  tail call void @llvm.assume(i1 %45)
  %46 = tail call i32 @errcode(i32 noundef 1088) #15
  %47 = tail call i32 (ptr, ...) @errmsg(ptr noundef nonnull @.str.153) #15
  tail call void @errfinish(ptr noundef nonnull @.str.2, i32 noundef 4423, ptr noundef nonnull @__func__.CheckAlterTableIsSafe) #15
  unreachable

CheckAlterTableIsSafe.exit:                       ; preds = %.lr.ph17, %41
  tail call void @CheckTableNotInUse(ptr noundef nonnull readonly %35, ptr noundef nonnull @.str.154)
  tail call fastcc void @ATPrepCmd(ptr noundef nonnull %0, ptr noundef nonnull %35, ptr noundef %5, i1 noundef zeroext true, i1 noundef zeroext true, i32 noundef %6, ptr noundef %7)
  tail call void @relation_close(ptr noundef nonnull %35, i32 noundef 0) #15
  %indvars.iv.next = add nuw nsw i64 %indvars.iv, 1
  %48 = load i32, ptr %28, align 4
  %49 = sext i32 %48 to i64
  %50 = icmp slt i64 %indvars.iv.next, %49
  br i1 %50, label %.lr.ph17, label %ATTypedTableRecursion.exit

ATTypedTableRecursion.exit:                       ; preds = %CheckAlterTableIsSafe.exit, %21, %.lr.ph, %17
  %.not10 = xor i1 %2, true
  %brmerge11 = or i1 %4, %.not10
  br i1 %brmerge11, label %53, label %51

51:                                               ; preds = %ATTypedTableRecursion.exit
  %52 = getelementptr inbounds nuw i8, ptr %5, i64 45
  store i8 1, ptr %52, align 1
  br label %53

53:                                               ; preds = %ATTypedTableRecursion.exit, %51
  ret void
}